target datalayout = "e-m:e-p270:32:32-p271:32:32-p272:64:64-i64:64-i128:128-f80:128-n8:16:32:64-S128"
target triple = "x86_64-pc-linux-gnu"

%"class.std::__cxx11::basic_string" = type { %"struct.std::__cxx11::basic_string<char>::_Alloc_hider", i64, %union.anon }
%"struct.std::__cxx11::basic_string<char>::_Alloc_hider" = type { ptr }
%union.anon = type { i64, [8 x i8] }
%"struct.faiss::Index.base" = type <{ ptr, i32, [4 x i8], i64, i8, i8, [2 x i8], i32, float }>
%"class.std::vector.5" = type { %"struct.std::_Vector_base.6" }
%"struct.std::_Vector_base.6" = type { %"struct.std::_Vector_base<float, std::allocator<float>>::_Vector_impl" }
%"struct.std::_Vector_base<float, std::allocator<float>>::_Vector_impl" = type { %"struct.std::_Vector_base<float, std::allocator<float>>::_Vector_impl_data" }
%"struct.std::_Vector_base<float, std::allocator<float>>::_Vector_impl_data" = type { ptr, ptr, ptr }
%"struct.faiss::Index" = type <{ ptr, i32, [4 x i8], i64, i8, i8, [2 x i8], i32, float, [4 x i8] }>
%"struct.faiss::AdditiveCoarseQuantizer" = type { %"struct.faiss::Index.base", ptr, %"class.std::vector.5" }

@.str = private unnamed_addr constant [19 x i8] c"Error: '%s' failed\00", align 1
@.str.2 = private unnamed_addr constant [122 x i8] c"generated/home/dtcxzyw/WorkSpace/Projects/compilers/llvm-opt-benchmark/bench/faiss/faiss/faiss/IndexAdditiveQuantizer.cpp\00", align 1
@_ZTIN5faiss14FaissExceptionE = external constant ptr
@.str.7 = private unnamed_addr constant [63 x i8] c"Error: '%s' failed: search params not supported for this index\00", align 1
@.str.8 = private unnamed_addr constant [8 x i8] c"!params\00", align 1
@__PRETTY_FUNCTION__._ZNK5faiss23AdditiveCoarseQuantizer6searchElPKflPfPlPKNS_16SearchParametersE = private unnamed_addr constant [131 x i8] c"virtual void faiss::AdditiveCoarseQuantizer::search(idx_t, const float *, idx_t, float *, idx_t *, const SearchParameters *) const\00", align 1
@.str.15 = private unnamed_addr constant [32 x i8] c"centroid_norms.size() == ntotal\00", align 1

; Function Attrs: mustprogress nounwind uwtable
define linkonce_odr noundef ptr @_ZNKSt6vectorIfSaIfEE11_M_data_ptrIfEEPT_S4_(ptr noundef nonnull align 8 dereferenceable(24) %0, ptr noundef %1) #0 comdat align 2 {
  %3 = alloca ptr, align 8
  %4 = alloca ptr, align 8
  store ptr %0, ptr %3, align 8
  store ptr %1, ptr %4, align 8
  %5 = load ptr, ptr %4, align 8
  ret ptr %5
}

; Function Attrs: mustprogress nounwind uwtable
define linkonce_odr noundef ptr @_ZNKSt6vectorIfSaIfEE4dataEv(ptr noundef nonnull align 8 dereferenceable(24) %0) #0 comdat align 2 {
  %2 = alloca ptr, align 8
  store ptr %0, ptr %2, align 8
  %3 = load ptr, ptr %2, align 8
  %4 = getelementptr inbounds %"struct.std::_Vector_base.6", ptr %3, i32 0, i32 0
  %5 = getelementptr inbounds %"struct.std::_Vector_base<float, std::allocator<float>>::_Vector_impl_data", ptr %4, i32 0, i32 0
  %6 = load ptr, ptr %5, align 8
  %7 = call noundef ptr @_ZNKSt6vectorIfSaIfEE11_M_data_ptrIfEEPT_S4_(ptr noundef nonnull align 8 dereferenceable(24) %3, ptr noundef %6) #11
  ret ptr %7
}

; Function Attrs: mustprogress nounwind uwtable
define linkonce_odr noundef i64 @_ZNKSt6vectorIfSaIfEE4sizeEv(ptr noundef nonnull align 8 dereferenceable(24) %0) #0 comdat align 2 {
  %2 = alloca ptr, align 8
  store ptr %0, ptr %2, align 8
  %3 = load ptr, ptr %2, align 8
  %4 = getelementptr inbounds %"struct.std::_Vector_base.6", ptr %3, i32 0, i32 0
  %5 = getelementptr inbounds %"struct.std::_Vector_base<float, std::allocator<float>>::_Vector_impl_data", ptr %4, i32 0, i32 1
  %6 = load ptr, ptr %5, align 8
  %7 = getelementptr inbounds %"struct.std::_Vector_base.6", ptr %3, i32 0, i32 0
  %8 = getelementptr inbounds %"struct.std::_Vector_base<float, std::allocator<float>>::_Vector_impl_data", ptr %7, i32 0, i32 0
  %9 = load ptr, ptr %8, align 8
  %10 = ptrtoint ptr %6 to i64
  %11 = ptrtoint ptr %9 to i64
  %12 = sub i64 %10, %11
  %13 = sdiv exact i64 %12, 4
  ret i64 %13
}

; Function Attrs: mustprogress uwtable
define void @_ZNK5faiss23AdditiveCoarseQuantizer6searchElPKflPfPlPKNS_16SearchParametersE(ptr noundef nonnull align 8 dereferenceable(72) %0, i64 noundef %1, ptr noundef %2, i64 noundef %3, ptr noundef %4, ptr noundef %5, ptr noundef %6) unnamed_addr #2 align 2 personality ptr @__gxx_personality_v0 {
  %8 = alloca ptr, align 8
  %9 = alloca i64, align 8
  %10 = alloca ptr, align 8
  %11 = alloca i64, align 8
  %12 = alloca ptr, align 8
  %13 = alloca ptr, align 8
  %14 = alloca ptr, align 8
  %15 = alloca %"class.std::__cxx11::basic_string", align 8
  %16 = alloca i32, align 4
  %17 = alloca ptr, align 8
  %18 = alloca i32, align 4
  %19 = alloca %"class.std::__cxx11::basic_string", align 8
  %20 = alloca i32, align 4
  store ptr %0, ptr %8, align 8
  store i64 %1, ptr %9, align 8
  store ptr %2, ptr %10, align 8
  store i64 %3, ptr %11, align 8
  store ptr %4, ptr %12, align 8
  store ptr %5, ptr %13, align 8
  store ptr %6, ptr %14, align 8
  %21 = load ptr, ptr %8, align 8
  br label %22

22:                                               ; preds = %7
  %23 = load ptr, ptr %14, align 8
  %24 = icmp ne ptr %23, null
  br i1 %24, label %25, label %48

25:                                               ; preds = %22
  br label %26

26:                                               ; preds = %25
  call void @_ZNSt7__cxx1112basic_stringIcSt11char_traitsIcESaIcEEC1Ev(ptr noundef nonnull align 8 dereferenceable(32) %15) #11
  %27 = call i32 (ptr, i64, ptr, ...) @snprintf(ptr noundef null, i64 noundef 0, ptr noundef @.str.7, ptr noundef @.str.8) #11
  store i32 %27, ptr %16, align 4
  %28 = load i32, ptr %16, align 4
  %29 = add nsw i32 %28, 1
  %30 = sext i32 %29 to i64
  invoke void @_ZNSt7__cxx1112basic_stringIcSt11char_traitsIcESaIcEE6resizeEm(ptr noundef nonnull align 8 dereferenceable(32) %15, i64 noundef %30)
          to label %31 unwind label %38

31:                                               ; preds = %26
  %32 = invoke noundef nonnull align 1 dereferenceable(1) ptr @_ZNSt7__cxx1112basic_stringIcSt11char_traitsIcESaIcEEixEm(ptr noundef nonnull align 8 dereferenceable(32) %15, i64 noundef 0)
          to label %33 unwind label %38

33:                                               ; preds = %31
  %34 = call noundef i64 @_ZNKSt7__cxx1112basic_stringIcSt11char_traitsIcESaIcEE4sizeEv(ptr noundef nonnull align 8 dereferenceable(32) %15) #11
  %35 = call i32 (ptr, i64, ptr, ...) @snprintf(ptr noundef %32, i64 noundef %34, ptr noundef @.str.7, ptr noundef @.str.8) #11
  %36 = call ptr @__cxa_allocate_exception(i64 40) #11
  invoke void @_ZN5faiss14FaissExceptionC1ERKNSt7__cxx1112basic_stringIcSt11char_traitsIcESaIcEEEPKcSA_i(ptr noundef nonnull align 8 dereferenceable(40) %36, ptr noundef nonnull align 8 dereferenceable(32) %15, ptr noundef @__PRETTY_FUNCTION__._ZNK5faiss23AdditiveCoarseQuantizer6searchElPKflPfPlPKNS_16SearchParametersE, ptr noundef @.str.2, i32 noundef 466)
          to label %37 unwind label %42

37:                                               ; preds = %33
  invoke void @__cxa_throw(ptr %36, ptr @_ZTIN5faiss14FaissExceptionE, ptr @_ZN5faiss14FaissExceptionD2Ev) #15
          to label %113 unwind label %38

38:                                               ; preds = %37, %31, %26
  %39 = landingpad { ptr, i32 }
          cleanup
  %40 = extractvalue { ptr, i32 } %39, 0
  store ptr %40, ptr %17, align 8
  %41 = extractvalue { ptr, i32 } %39, 1
  store i32 %41, ptr %18, align 4
  br label %46

42:                                               ; preds = %33
  %43 = landingpad { ptr, i32 }
          cleanup
  %44 = extractvalue { ptr, i32 } %43, 0
  store ptr %44, ptr %17, align 8
  %45 = extractvalue { ptr, i32 } %43, 1
  store i32 %45, ptr %18, align 4
  call void @__cxa_free_exception(ptr %36) #11
  br label %46

46:                                               ; preds = %42, %38
  call void @_ZNSt7__cxx1112basic_stringIcSt11char_traitsIcESaIcEED1Ev(ptr noundef nonnull align 8 dereferenceable(32) %15) #11
  br label %108

47:                                               ; No predecessors!
  br label %48

48:                                               ; preds = %47, %22
  br label %49

49:                                               ; preds = %48
  %50 = getelementptr inbounds %"struct.faiss::Index", ptr %21, i32 0, i32 7
  %51 = load i32, ptr %50, align 4
  %52 = icmp eq i32 %51, 0
  br i1 %52, label %53, label %61

53:                                               ; preds = %49
  %54 = getelementptr inbounds %"struct.faiss::AdditiveCoarseQuantizer", ptr %21, i32 0, i32 1
  %55 = load ptr, ptr %54, align 8
  %56 = load i64, ptr %9, align 8
  %57 = load ptr, ptr %10, align 8
  %58 = load i64, ptr %11, align 8
  %59 = load ptr, ptr %12, align 8
  %60 = load ptr, ptr %13, align 8
  call void @_ZNK5faiss17AdditiveQuantizer27knn_centroids_inner_productElPKflPfPl(ptr noundef nonnull align 8 dereferenceable(308) %55, i64 noundef %56, ptr noundef %57, i64 noundef %58, ptr noundef %59, ptr noundef %60)
  br label %107

61:                                               ; preds = %49
  %62 = getelementptr inbounds %"struct.faiss::Index", ptr %21, i32 0, i32 7
  %63 = load i32, ptr %62, align 4
  %64 = icmp eq i32 %63, 1
  br i1 %64, label %65, label %106

65:                                               ; preds = %61
  br label %66

66:                                               ; preds = %65
  %67 = getelementptr inbounds %"struct.faiss::AdditiveCoarseQuantizer", ptr %21, i32 0, i32 2
  %68 = call noundef i64 @_ZNKSt6vectorIfSaIfEE4sizeEv(ptr noundef nonnull align 8 dereferenceable(24) %67) #11
  %69 = getelementptr inbounds %"struct.faiss::Index", ptr %21, i32 0, i32 3
  %70 = load i64, ptr %69, align 8
  %71 = icmp eq i64 %68, %70
  br i1 %71, label %95, label %72

72:                                               ; preds = %66
  br label %73

73:                                               ; preds = %72
  call void @_ZNSt7__cxx1112basic_stringIcSt11char_traitsIcESaIcEEC1Ev(ptr noundef nonnull align 8 dereferenceable(32) %19) #11
  %74 = call i32 (ptr, i64, ptr, ...) @snprintf(ptr noundef null, i64 noundef 0, ptr noundef @.str, ptr noundef @.str.15) #11
  store i32 %74, ptr %20, align 4
  %75 = load i32, ptr %20, align 4
  %76 = add nsw i32 %75, 1
  %77 = sext i32 %76 to i64
  invoke void @_ZNSt7__cxx1112basic_stringIcSt11char_traitsIcESaIcEE6resizeEm(ptr noundef nonnull align 8 dereferenceable(32) %19, i64 noundef %77)
          to label %78 unwind label %85

78:                                               ; preds = %73
  %79 = invoke noundef nonnull align 1 dereferenceable(1) ptr @_ZNSt7__cxx1112basic_stringIcSt11char_traitsIcESaIcEEixEm(ptr noundef nonnull align 8 dereferenceable(32) %19, i64 noundef 0)
          to label %80 unwind label %85

80:                                               ; preds = %78
  %81 = call noundef i64 @_ZNKSt7__cxx1112basic_stringIcSt11char_traitsIcESaIcEE4sizeEv(ptr noundef nonnull align 8 dereferenceable(32) %19) #11
  %82 = call i32 (ptr, i64, ptr, ...) @snprintf(ptr noundef %79, i64 noundef %81, ptr noundef @.str, ptr noundef @.str.15) #11
  %83 = call ptr @__cxa_allocate_exception(i64 40) #11
  invoke void @_ZN5faiss14FaissExceptionC1ERKNSt7__cxx1112basic_stringIcSt11char_traitsIcESaIcEEEPKcSA_i(ptr noundef nonnull align 8 dereferenceable(40) %83, ptr noundef nonnull align 8 dereferenceable(32) %19, ptr noundef @__PRETTY_FUNCTION__._ZNK5faiss23AdditiveCoarseQuantizer6searchElPKflPfPlPKNS_16SearchParametersE, ptr noundef @.str.2, i32 noundef 471)
          to label %84 unwind label %89

84:                                               ; preds = %80
  invoke void @__cxa_throw(ptr %83, ptr @_ZTIN5faiss14FaissExceptionE, ptr @_ZN5faiss14FaissExceptionD2Ev) #15
          to label %113 unwind label %85

85:                                               ; preds = %84, %78, %73
  %86 = landingpad { ptr, i32 }
          cleanup
  %87 = extractvalue { ptr, i32 } %86, 0
  store ptr %87, ptr %17, align 8
  %88 = extractvalue { ptr, i32 } %86, 1
  store i32 %88, ptr %18, align 4
  br label %93

89:                                               ; preds = %80
  %90 = landingpad { ptr, i32 }
          cleanup
  %91 = extractvalue { ptr, i32 } %90, 0
  store ptr %91, ptr %17, align 8
  %92 = extractvalue { ptr, i32 } %90, 1
  store i32 %92, ptr %18, align 4
  call void @__cxa_free_exception(ptr %83) #11
  br label %93

93:                                               ; preds = %89, %85
  call void @_ZNSt7__cxx1112basic_stringIcSt11char_traitsIcESaIcEED1Ev(ptr noundef nonnull align 8 dereferenceable(32) %19) #11
  br label %108

94:                                               ; No predecessors!
  br label %95

95:                                               ; preds = %94, %66
  br label %96

96:                                               ; preds = %95
  %97 = getelementptr inbounds %"struct.faiss::AdditiveCoarseQuantizer", ptr %21, i32 0, i32 1
  %98 = load ptr, ptr %97, align 8
  %99 = load i64, ptr %9, align 8
  %100 = load ptr, ptr %10, align 8
  %101 = load i64, ptr %11, align 8
  %102 = load ptr, ptr %12, align 8
  %103 = load ptr, ptr %13, align 8
  %104 = getelementptr inbounds %"struct.faiss::AdditiveCoarseQuantizer", ptr %21, i32 0, i32 2
  %105 = call noundef ptr @_ZNKSt6vectorIfSaIfEE4dataEv(ptr noundef nonnull align 8 dereferenceable(24) %104) #11
  call void @_ZNK5faiss17AdditiveQuantizer16knn_centroids_L2ElPKflPfPlS2_(ptr noundef nonnull align 8 dereferenceable(308) %98, i64 noundef %99, ptr noundef %100, i64 noundef %101, ptr noundef %102, ptr noundef %103, ptr noundef %105)
  br label %106

106:                                              ; preds = %96, %61
  br label %107

107:                                              ; preds = %106, %53
  ret void

108:                                              ; preds = %93, %46
  %109 = load ptr, ptr %17, align 8
  %110 = load i32, ptr %18, align 4
  %111 = insertvalue { ptr, i32 } poison, ptr %109, 0
  %112 = insertvalue { ptr, i32 } %111, i32 %110, 1
  resume { ptr, i32 } %112

113:                                              ; preds = %84, %37
  unreachable
}