; Function Attrs: mustprogress uwtable
define void @_ZNK5faiss23AdditiveCoarseQuantizer6searchElPKflPfPlPKNS_16SearchParametersE(ptr nocapture noundef nonnull readonly align 8 dereferenceable(72) %0, i64 noundef %1, ptr noundef %2, i64 noundef %3, ptr noundef %4, ptr noundef %5, ptr noundef readnone %6) unnamed_addr #2 align 2 personality ptr @__gxx_personality_v0 {
  %8 = alloca %"class.std::__cxx11::basic_string", align 8
  %9 = alloca %"class.std::__cxx11::basic_string", align 8
  %.not = icmp eq ptr %6, null
  br i1 %.not, label %25, label %10

10:                                               ; preds = %7
  call void @_ZNSt7__cxx1112basic_stringIcSt11char_traitsIcESaIcEEC1Ev(ptr noundef nonnull align 8 dereferenceable(32) %8) #14
  %11 = call i32 (ptr, i64, ptr, ...) @snprintf(ptr noundef null, i64 noundef 0, ptr noundef nonnull @.str.7, ptr noundef nonnull @.str.8) #14
  %12 = add nsw i32 %11, 1
  %13 = sext i32 %12 to i64
  invoke void @_ZNSt7__cxx1112basic_stringIcSt11char_traitsIcESaIcEE6resizeEm(ptr noundef nonnull align 8 dereferenceable(32) %8, i64 noundef %13)
          to label %14 unwind label %21

14:                                               ; preds = %10
  %15 = invoke noundef nonnull align 1 dereferenceable(1) ptr @_ZNSt7__cxx1112basic_stringIcSt11char_traitsIcESaIcEEixEm(ptr noundef nonnull align 8 dereferenceable(32) %8, i64 noundef 0)
          to label %16 unwind label %21

16:                                               ; preds = %14
  %17 = call noundef i64 @_ZNKSt7__cxx1112basic_stringIcSt11char_traitsIcESaIcEE4sizeEv(ptr noundef nonnull align 8 dereferenceable(32) %8) #14
  %18 = call i32 (ptr, i64, ptr, ...) @snprintf(ptr noundef nonnull %15, i64 noundef %17, ptr noundef nonnull @.str.7, ptr noundef nonnull @.str.8) #14
  %19 = call ptr @__cxa_allocate_exception(i64 40) #14
  invoke void @_ZN5faiss14FaissExceptionC1ERKNSt7__cxx1112basic_stringIcSt11char_traitsIcESaIcEEEPKcSA_i(ptr noundef nonnull align 8 dereferenceable(40) %19, ptr noundef nonnull align 8 dereferenceable(32) %8, ptr noundef nonnull @__PRETTY_FUNCTION__._ZNK5faiss23AdditiveCoarseQuantizer6searchElPKflPfPlPKNS_16SearchParametersE, ptr noundef nonnull @.str.2, i32 noundef 466)
          to label %20 unwind label %23

20:                                               ; preds = %16
  invoke void @__cxa_throw(ptr nonnull %19, ptr nonnull @_ZTIN5faiss14FaissExceptionE, ptr nonnull @_ZN5faiss14FaissExceptionD2Ev) #21
          to label %63 unwind label %21

21:                                               ; preds = %20, %14, %10
  %22 = landingpad { ptr, i32 }
          cleanup
  br label %62

23:                                               ; preds = %16
  %24 = landingpad { ptr, i32 }
          cleanup
  call void @__cxa_free_exception(ptr %19) #14
  br label %62

25:                                               ; preds = %7
  %26 = getelementptr inbounds i8, ptr %0, i64 28
  %27 = load i32, ptr %26, align 4
  switch i32 %27, label %61 [
    i32 0, label %28
    i32 1, label %31
  ]

28:                                               ; preds = %25
  %29 = getelementptr inbounds i8, ptr %0, i64 40
  %30 = load ptr, ptr %29, align 8
  tail call void @_ZNK5faiss17AdditiveQuantizer27knn_centroids_inner_productElPKflPfPl(ptr noundef nonnull align 8 dereferenceable(308) %30, i64 noundef %1, ptr noundef %2, i64 noundef %3, ptr noundef %4, ptr noundef %5)
  br label %61

31:                                               ; preds = %25
  %32 = getelementptr inbounds i8, ptr %0, i64 48
  %33 = getelementptr inbounds i8, ptr %0, i64 56
  %34 = load ptr, ptr %33, align 8
  %35 = load ptr, ptr %32, align 8
  %36 = ptrtoint ptr %34 to i64
  %37 = ptrtoint ptr %35 to i64
  %38 = sub i64 %36, %37
  %39 = ashr exact i64 %38, 2
  %40 = getelementptr inbounds i8, ptr %0, i64 16
  %41 = load i64, ptr %40, align 8
  %42 = icmp eq i64 %39, %41
  br i1 %42, label %58, label %43

43:                                               ; preds = %31
  call void @_ZNSt7__cxx1112basic_stringIcSt11char_traitsIcESaIcEEC1Ev(ptr noundef nonnull align 8 dereferenceable(32) %9) #14
  %44 = call i32 (ptr, i64, ptr, ...) @snprintf(ptr noundef null, i64 noundef 0, ptr noundef nonnull @.str, ptr noundef nonnull @.str.15) #14
  %45 = add nsw i32 %44, 1
  %46 = sext i32 %45 to i64
  invoke void @_ZNSt7__cxx1112basic_stringIcSt11char_traitsIcESaIcEE6resizeEm(ptr noundef nonnull align 8 dereferenceable(32) %9, i64 noundef %46)
          to label %47 unwind label %54

47:                                               ; preds = %43
  %48 = invoke noundef nonnull align 1 dereferenceable(1) ptr @_ZNSt7__cxx1112basic_stringIcSt11char_traitsIcESaIcEEixEm(ptr noundef nonnull align 8 dereferenceable(32) %9, i64 noundef 0)
          to label %49 unwind label %54

49:                                               ; preds = %47
  %50 = call noundef i64 @_ZNKSt7__cxx1112basic_stringIcSt11char_traitsIcESaIcEE4sizeEv(ptr noundef nonnull align 8 dereferenceable(32) %9) #14
  %51 = call i32 (ptr, i64, ptr, ...) @snprintf(ptr noundef nonnull %48, i64 noundef %50, ptr noundef nonnull @.str, ptr noundef nonnull @.str.15) #14
  %52 = call ptr @__cxa_allocate_exception(i64 40) #14
  invoke void @_ZN5faiss14FaissExceptionC1ERKNSt7__cxx1112basic_stringIcSt11char_traitsIcESaIcEEEPKcSA_i(ptr noundef nonnull align 8 dereferenceable(40) %52, ptr noundef nonnull align 8 dereferenceable(32) %9, ptr noundef nonnull @__PRETTY_FUNCTION__._ZNK5faiss23AdditiveCoarseQuantizer6searchElPKflPfPlPKNS_16SearchParametersE, ptr noundef nonnull @.str.2, i32 noundef 471)
          to label %53 unwind label %56

53:                                               ; preds = %49
  invoke void @__cxa_throw(ptr nonnull %52, ptr nonnull @_ZTIN5faiss14FaissExceptionE, ptr nonnull @_ZN5faiss14FaissExceptionD2Ev) #21
          to label %63 unwind label %54

54:                                               ; preds = %53, %47, %43
  %55 = landingpad { ptr, i32 }
          cleanup
  br label %62

56:                                               ; preds = %49
  %57 = landingpad { ptr, i32 }
          cleanup
  call void @__cxa_free_exception(ptr %52) #14
  br label %62

58:                                               ; preds = %31
  %59 = getelementptr inbounds i8, ptr %0, i64 40
  %60 = load ptr, ptr %59, align 8
  tail call void @_ZNK5faiss17AdditiveQuantizer16knn_centroids_L2ElPKflPfPlS2_(ptr noundef nonnull align 8 dereferenceable(308) %60, i64 noundef %1, ptr noundef %2, i64 noundef %3, ptr noundef %4, ptr noundef %5, ptr noundef %35)
  br label %61

61:                                               ; preds = %25, %58, %28
  ret void

62:                                               ; preds = %54, %56, %21, %23
  %.sink = phi ptr [ %8, %23 ], [ %8, %21 ], [ %9, %56 ], [ %9, %54 ]
  %.pn20.pn = phi { ptr, i32 } [ %24, %23 ], [ %22, %21 ], [ %57, %56 ], [ %55, %54 ]
  call void @_ZNSt7__cxx1112basic_stringIcSt11char_traitsIcESaIcEED1Ev(ptr noundef nonnull align 8 dereferenceable(32) %.sink) #14
  resume { ptr, i32 } %.pn20.pn

63:                                               ; preds = %53, %20
  unreachable
}